; Function Attrs: mustprogress uwtable
define dso_local void @_ZN5Donut5SpawnE9b2WorldId6b2Vec2fiPv(ptr noundef nonnull align 4 captures(none) dereferenceable(113) %0, i32 %1, <2 x float> %2, float noundef %3, i32 noundef %4, ptr noundef %5) local_unnamed_addr #2 align 2 {
  %7 = alloca %struct.b2Capsule, align 4
  %8 = alloca %struct.b2BodyDef, align 8
  %9 = alloca %struct.b2ShapeDef, align 8
  %10 = alloca %struct.b2WeldJointDef, align 8
  %11 = fmul float %3, 0x401921FB60000000
  %12 = fdiv float %11, 7.000000e+00
  call void @llvm.lifetime.start.p0(i64 20, ptr nonnull %7) #7
  store float 0.000000e+00, ptr %7, align 4, !tbaa !4
  %13 = getelementptr inbounds nuw i8, ptr %7, i64 4
  %14 = fmul float %12, -5.000000e-01
  store float %14, ptr %13, align 4, !tbaa !9
  %15 = getelementptr inbounds nuw i8, ptr %7, i64 8
  store float 0.000000e+00, ptr %15, align 4, !tbaa !4
  %16 = getelementptr inbounds nuw i8, ptr %7, i64 12
  %17 = fmul float %12, 5.000000e-01
  store float %17, ptr %16, align 4, !tbaa !9
  %18 = getelementptr inbounds nuw i8, ptr %7, i64 16
  %19 = fmul float %3, 2.500000e-01
  store float %19, ptr %18, align 4, !tbaa !10
  %.sroa.049.0.vec.extract = extractelement <2 x float> %2, i64 0
  %.sroa.049.4.vec.extract = extractelement <2 x float> %2, i64 1
  call void @llvm.lifetime.start.p0(i64 80, ptr nonnull %8) #7
  call void @b2DefaultBodyDef(ptr dead_on_unwind nonnull writable sret(%struct.b2BodyDef) align 8 %8)
  store i32 2, ptr %8, align 8, !tbaa !12
  %20 = getelementptr inbounds nuw i8, ptr %8, i64 56
  store ptr %5, ptr %20, align 8, !tbaa !20
  call void @llvm.lifetime.start.p0(i64 72, ptr nonnull %9) #7
  call void @b2DefaultShapeDef(ptr dead_on_unwind nonnull writable sret(%struct.b2ShapeDef) align 8 %9)
  %21 = getelementptr inbounds nuw i8, ptr %9, i64 28
  store float 1.000000e+00, ptr %21, align 4, !tbaa !21
  %22 = sub nsw i32 0, %4
  %23 = getelementptr inbounds nuw i8, ptr %9, i64 48
  store i32 %22, ptr %23, align 8, !tbaa !25
  %24 = getelementptr inbounds nuw i8, ptr %9, i64 8
  store float 0x3FD3333340000000, ptr %24, align 8, !tbaa !26
  %25 = getelementptr inbounds nuw i8, ptr %8, i64 4
  %.sroa.424.0..sroa_idx = getelementptr inbounds nuw i8, ptr %8, i64 8
  %26 = getelementptr inbounds nuw i8, ptr %8, i64 12
  br label %36

27:                                               ; preds = %36
  call void @llvm.lifetime.start.p0(i64 72, ptr nonnull %10) #7
  call void @b2DefaultWeldJointDef(ptr dead_on_unwind nonnull writable sret(%struct.b2WeldJointDef) align 8 %10)
  %28 = getelementptr inbounds nuw i8, ptr %10, i64 40
  store float 5.000000e+00, ptr %28, align 8, !tbaa !27
  %29 = getelementptr inbounds nuw i8, ptr %10, i64 48
  store float 0.000000e+00, ptr %29, align 8, !tbaa !31
  %30 = getelementptr inbounds nuw i8, ptr %10, i64 16
  store float 0.000000e+00, ptr %30, align 8, !tbaa !32
  %.sroa.417.0..sroa_idx = getelementptr inbounds nuw i8, ptr %10, i64 20
  store float %17, ptr %.sroa.417.0..sroa_idx, align 4, !tbaa !32
  %31 = getelementptr inbounds nuw i8, ptr %10, i64 24
  store float 0.000000e+00, ptr %31, align 8, !tbaa !32
  %.sroa.4.0..sroa_idx = getelementptr inbounds nuw i8, ptr %10, i64 28
  store float %14, ptr %.sroa.4.0..sroa_idx, align 4, !tbaa !32
  %32 = getelementptr inbounds nuw i8, ptr %0, i64 48
  %.sroa.012.0.copyload = load i64, ptr %32, align 4
  %33 = getelementptr inbounds nuw i8, ptr %10, i64 8
  %34 = getelementptr inbounds nuw i8, ptr %10, i64 32
  %35 = getelementptr inbounds nuw i8, ptr %0, i64 56
  br label %50

36:                                               ; preds = %6, %36
  %indvars.iv = phi i64 [ 0, %6 ], [ %indvars.iv.next, %36 ]
  %.05256 = phi float [ 0.000000e+00, %6 ], [ %47, %36 ]
  %37 = call float @cosf(float noundef %.05256) #7, !tbaa !33
  %38 = fmul float %3, %37
  %39 = fadd float %.sroa.049.0.vec.extract, %38
  %40 = call float @sinf(float noundef %.05256) #7, !tbaa !33
  %41 = fmul float %3, %40
  %42 = fadd float %.sroa.049.4.vec.extract, %41
  store float %39, ptr %25, align 4, !tbaa !32
  store float %42, ptr %.sroa.424.0..sroa_idx, align 8, !tbaa !32
  %43 = call <2 x float> @b2ComputeCosSin(float noundef %.05256)
  store <2 x float> %43, ptr %26, align 4
  %44 = call i64 @b2CreateBody(i32 %1, ptr noundef nonnull %8)
  %45 = getelementptr inbounds nuw [7 x %struct.b2BodyId], ptr %0, i64 0, i64 %indvars.iv
  store i64 %44, ptr %45, align 4
  %46 = call i64 @b2CreateCapsuleShape(i64 %44, ptr noundef nonnull %9, ptr noundef nonnull %7)
  %47 = fadd float %.05256, 0x3FECB91F40000000
  %indvars.iv.next = add nuw nsw i64 %indvars.iv, 1
  %exitcond.not = icmp eq i64 %indvars.iv.next, 7
  br i1 %exitcond.not, label %27, label %36, !llvm.loop !34

48:                                               ; preds = %50
  %49 = getelementptr inbounds nuw i8, ptr %0, i64 112
  store i8 1, ptr %49, align 4, !tbaa !36
  call void @llvm.lifetime.end.p0(i64 72, ptr nonnull %10) #7
  call void @llvm.lifetime.end.p0(i64 72, ptr nonnull %9) #7
  call void @llvm.lifetime.end.p0(i64 80, ptr nonnull %8) #7
  call void @llvm.lifetime.end.p0(i64 20, ptr nonnull %7) #7
  ret void

50:                                               ; preds = %27, %50
  %indvars.iv60 = phi i64 [ 0, %27 ], [ %indvars.iv.next61, %50 ]
  %.sroa.012.058 = phi i64 [ %.sroa.012.0.copyload, %27 ], [ %.sroa.012.0.copyload14, %50 ]
  store i64 %.sroa.012.058, ptr %10, align 8
  %51 = getelementptr inbounds nuw [7 x %struct.b2BodyId], ptr %0, i64 0, i64 %indvars.iv60
  %52 = load i64, ptr %51, align 4
  store i64 %52, ptr %33, align 8
  %53 = call <2 x float> @b2Body_GetRotation(i64 %.sroa.012.058)
  %.sroa.04.0.copyload = load i64, ptr %51, align 4
  %54 = call <2 x float> @b2Body_GetRotation(i64 %.sroa.04.0.copyload)
  %.sroa.06.4.vec.extract.i = extractelement <2 x float> %54, i64 1
  %.sroa.0.0.vec.extract.i = extractelement <2 x float> %53, i64 0
  %55 = fmul float %.sroa.0.0.vec.extract.i, %.sroa.06.4.vec.extract.i
  %.sroa.06.0.vec.extract.i = extractelement <2 x float> %54, i64 0
  %.sroa.0.4.vec.extract.i = extractelement <2 x float> %53, i64 1
  %56 = fmul float %.sroa.0.4.vec.extract.i, %.sroa.06.0.vec.extract.i
  %57 = fsub float %55, %56
  %58 = fmul <2 x float> %53, %54
  %59 = extractelement <2 x float> %58, i64 0
  %60 = fmul float %.sroa.0.4.vec.extract.i, %.sroa.06.4.vec.extract.i
  %61 = fadd float %59, %60
  %62 = call noundef float @b2Atan2(float noundef %57, float noundef %61)
  store float %62, ptr %34, align 8, !tbaa !38
  %63 = call i64 @b2CreateWeldJoint(i32 %1, ptr noundef nonnull %10)
  %64 = getelementptr inbounds nuw [7 x %struct.b2JointId], ptr %35, i64 0, i64 %indvars.iv60
  store i64 %63, ptr %64, align 4
  %.sroa.012.0.copyload14 = load i64, ptr %33, align 8
  %indvars.iv.next61 = add nuw nsw i64 %indvars.iv60, 1
  %exitcond63.not = icmp eq i64 %indvars.iv.next61, 7
  br i1 %exitcond63.not, label %48, label %50, !llvm.loop !39
}